target datalayout = "e-m:e-p270:32:32-p271:32:32-p272:64:64-i64:64-i128:128-f80:128-n8:16:32:64-S128"
target triple = "x86_64-pc-linux-gnu"

%class.CryptData = type { [4 x %"struct.CryptData::KDF3CacheItem"], i32, [4 x i8], [4 x %"struct.CryptData::KDF5CacheItem"], i32, i32, %class.Rijndael, [256 x i32], [256 x i8], [4 x i32], [3 x i8], [4 x i16], [4 x i8] }
%"struct.CryptData::KDF3CacheItem" = type { %class.SecPassword, [8 x i8], [16 x i8], [16 x i8], i8, [7 x i8] }
%class.SecPassword = type <{ %"class.std::vector", i8, [7 x i8] }>
%"class.std::vector" = type { %"struct.std::_Vector_base" }
%"struct.std::_Vector_base" = type { %"struct.std::_Vector_base<wchar_t, std::allocator<wchar_t>>::_Vector_impl" }
%"struct.std::_Vector_base<wchar_t, std::allocator<wchar_t>>::_Vector_impl" = type { %"struct.std::_Vector_base<wchar_t, std::allocator<wchar_t>>::_Vector_impl_data" }
%"struct.std::_Vector_base<wchar_t, std::allocator<wchar_t>>::_Vector_impl_data" = type { ptr, ptr, ptr }
%"struct.CryptData::KDF5CacheItem" = type { %class.SecPassword, [16 x i8], [32 x i8], i32, [32 x i8], [32 x i8], [4 x i8] }
%class.Rijndael = type { i8, i32, [16 x i8], [15 x [4 x [4 x i8]]] }

; Function Attrs: mustprogress nounwind uwtable
define void @_ZN9CryptData7Crypt15EPhm(ptr noundef nonnull align 8 dereferenceable(2516) %0, ptr noundef %1, i64 noundef %2) #0 align 2 {
  %4 = alloca ptr, align 8
  %5 = alloca ptr, align 8
  %6 = alloca i64, align 8
  store ptr %0, ptr %4, align 8
  store ptr %1, ptr %5, align 8
  store i64 %2, ptr %6, align 8
  %7 = load ptr, ptr %4, align 8
  br label %8

8:                                                ; preds = %12, %3
  %9 = load i64, ptr %6, align 8
  %10 = add i64 %9, -1
  store i64 %10, ptr %6, align 8
  %11 = icmp ne i64 %9, 0
  br i1 %11, label %12, label %123

12:                                               ; preds = %8
  %13 = getelementptr inbounds %class.CryptData, ptr %7, i32 0, i32 11
  %14 = getelementptr inbounds [4 x i16], ptr %13, i64 0, i64 0
  %15 = load i16, ptr %14, align 4
  %16 = zext i16 %15 to i32
  %17 = add nsw i32 %16, 4660
  %18 = trunc i32 %17 to i16
  store i16 %18, ptr %14, align 4
  %19 = getelementptr inbounds %class.CryptData, ptr %7, i32 0, i32 7
  %20 = getelementptr inbounds %class.CryptData, ptr %7, i32 0, i32 11
  %21 = getelementptr inbounds [4 x i16], ptr %20, i64 0, i64 0
  %22 = load i16, ptr %21, align 4
  %23 = zext i16 %22 to i32
  %24 = and i32 %23, 510
  %25 = ashr i32 %24, 1
  %26 = sext i32 %25 to i64
  %27 = getelementptr inbounds [256 x i32], ptr %19, i64 0, i64 %26
  %28 = load i32, ptr %27, align 4
  %29 = getelementptr inbounds %class.CryptData, ptr %7, i32 0, i32 11
  %30 = getelementptr inbounds [4 x i16], ptr %29, i64 0, i64 1
  %31 = load i16, ptr %30, align 2
  %32 = zext i16 %31 to i32
  %33 = xor i32 %32, %28
  %34 = trunc i32 %33 to i16
  store i16 %34, ptr %30, align 2
  %35 = getelementptr inbounds %class.CryptData, ptr %7, i32 0, i32 7
  %36 = getelementptr inbounds %class.CryptData, ptr %7, i32 0, i32 11
  %37 = getelementptr inbounds [4 x i16], ptr %36, i64 0, i64 0
  %38 = load i16, ptr %37, align 4
  %39 = zext i16 %38 to i32
  %40 = and i32 %39, 510
  %41 = ashr i32 %40, 1
  %42 = sext i32 %41 to i64
  %43 = getelementptr inbounds [256 x i32], ptr %35, i64 0, i64 %42
  %44 = load i32, ptr %43, align 4
  %45 = lshr i32 %44, 16
  %46 = getelementptr inbounds %class.CryptData, ptr %7, i32 0, i32 11
  %47 = getelementptr inbounds [4 x i16], ptr %46, i64 0, i64 2
  %48 = load i16, ptr %47, align 4
  %49 = zext i16 %48 to i32
  %50 = sub i32 %49, %45
  %51 = trunc i32 %50 to i16
  store i16 %51, ptr %47, align 4
  %52 = getelementptr inbounds %class.CryptData, ptr %7, i32 0, i32 11
  %53 = getelementptr inbounds [4 x i16], ptr %52, i64 0, i64 2
  %54 = load i16, ptr %53, align 4
  %55 = zext i16 %54 to i32
  %56 = getelementptr inbounds %class.CryptData, ptr %7, i32 0, i32 11
  %57 = getelementptr inbounds [4 x i16], ptr %56, i64 0, i64 0
  %58 = load i16, ptr %57, align 4
  %59 = zext i16 %58 to i32
  %60 = xor i32 %59, %55
  %61 = trunc i32 %60 to i16
  store i16 %61, ptr %57, align 4
  %62 = getelementptr inbounds %class.CryptData, ptr %7, i32 0, i32 11
  %63 = getelementptr inbounds [4 x i16], ptr %62, i64 0, i64 3
  %64 = load i16, ptr %63, align 2
  %65 = zext i16 %64 to i32
  %66 = and i32 %65, 65535
  %67 = ashr i32 %66, 1
  %68 = getelementptr inbounds %class.CryptData, ptr %7, i32 0, i32 11
  %69 = getelementptr inbounds [4 x i16], ptr %68, i64 0, i64 3
  %70 = load i16, ptr %69, align 2
  %71 = zext i16 %70 to i32
  %72 = and i32 %71, 65535
  %73 = shl i32 %72, 15
  %74 = or i32 %67, %73
  %75 = getelementptr inbounds %class.CryptData, ptr %7, i32 0, i32 11
  %76 = getelementptr inbounds [4 x i16], ptr %75, i64 0, i64 1
  %77 = load i16, ptr %76, align 2
  %78 = zext i16 %77 to i32
  %79 = xor i32 %74, %78
  %80 = trunc i32 %79 to i16
  %81 = getelementptr inbounds %class.CryptData, ptr %7, i32 0, i32 11
  %82 = getelementptr inbounds [4 x i16], ptr %81, i64 0, i64 3
  store i16 %80, ptr %82, align 2
  %83 = getelementptr inbounds %class.CryptData, ptr %7, i32 0, i32 11
  %84 = getelementptr inbounds [4 x i16], ptr %83, i64 0, i64 3
  %85 = load i16, ptr %84, align 2
  %86 = zext i16 %85 to i32
  %87 = and i32 %86, 65535
  %88 = ashr i32 %87, 1
  %89 = getelementptr inbounds %class.CryptData, ptr %7, i32 0, i32 11
  %90 = getelementptr inbounds [4 x i16], ptr %89, i64 0, i64 3
  %91 = load i16, ptr %90, align 2
  %92 = zext i16 %91 to i32
  %93 = and i32 %92, 65535
  %94 = shl i32 %93, 15
  %95 = or i32 %88, %94
  %96 = trunc i32 %95 to i16
  %97 = getelementptr inbounds %class.CryptData, ptr %7, i32 0, i32 11
  %98 = getelementptr inbounds [4 x i16], ptr %97, i64 0, i64 3
  store i16 %96, ptr %98, align 2
  %99 = getelementptr inbounds %class.CryptData, ptr %7, i32 0, i32 11
  %100 = getelementptr inbounds [4 x i16], ptr %99, i64 0, i64 3
  %101 = load i16, ptr %100, align 2
  %102 = zext i16 %101 to i32
  %103 = getelementptr inbounds %class.CryptData, ptr %7, i32 0, i32 11
  %104 = getelementptr inbounds [4 x i16], ptr %103, i64 0, i64 0
  %105 = load i16, ptr %104, align 4
  %106 = zext i16 %105 to i32
  %107 = xor i32 %106, %102
  %108 = trunc i32 %107 to i16
  store i16 %108, ptr %104, align 4
  %109 = getelementptr inbounds %class.CryptData, ptr %7, i32 0, i32 11
  %110 = getelementptr inbounds [4 x i16], ptr %109, i64 0, i64 0
  %111 = load i16, ptr %110, align 4
  %112 = zext i16 %111 to i32
  %113 = ashr i32 %112, 8
  %114 = trunc i32 %113 to i8
  %115 = zext i8 %114 to i32
  %116 = load ptr, ptr %5, align 8
  %117 = load i8, ptr %116, align 1
  %118 = zext i8 %117 to i32
  %119 = xor i32 %118, %115
  %120 = trunc i32 %119 to i8
  store i8 %120, ptr %116, align 1
  %121 = load ptr, ptr %5, align 8
  %122 = getelementptr inbounds i8, ptr %121, i32 1
  store ptr %122, ptr %5, align 8
  br label %8, !llvm.loop !8

123:                                              ; preds = %8
  ret void
}

; Function Attrs: mustprogress nounwind uwtable
define void @_ZN9CryptData9Decrypt13EPhm(ptr noundef nonnull align 8 dereferenceable(2516) %0, ptr noundef %1, i64 noundef %2) #0 align 2 {
  %4 = alloca ptr, align 8
  %5 = alloca ptr, align 8
  %6 = alloca i64, align 8
  store ptr %0, ptr %4, align 8
  store ptr %1, ptr %5, align 8
  store i64 %2, ptr %6, align 8
  %7 = load ptr, ptr %4, align 8
  br label %8

8:                                                ; preds = %12, %3
  %9 = load i64, ptr %6, align 8
  %10 = add i64 %9, -1
  store i64 %10, ptr %6, align 8
  %11 = icmp ne i64 %9, 0
  br i1 %11, label %12, label %44

12:                                               ; preds = %8
  %13 = getelementptr inbounds %class.CryptData, ptr %7, i32 0, i32 10
  %14 = getelementptr inbounds [3 x i8], ptr %13, i64 0, i64 2
  %15 = load i8, ptr %14, align 2
  %16 = zext i8 %15 to i32
  %17 = getelementptr inbounds %class.CryptData, ptr %7, i32 0, i32 10
  %18 = getelementptr inbounds [3 x i8], ptr %17, i64 0, i64 1
  %19 = load i8, ptr %18, align 1
  %20 = zext i8 %19 to i32
  %21 = add nsw i32 %20, %16
  %22 = trunc i32 %21 to i8
  store i8 %22, ptr %18, align 1
  %23 = getelementptr inbounds %class.CryptData, ptr %7, i32 0, i32 10
  %24 = getelementptr inbounds [3 x i8], ptr %23, i64 0, i64 1
  %25 = load i8, ptr %24, align 1
  %26 = zext i8 %25 to i32
  %27 = getelementptr inbounds %class.CryptData, ptr %7, i32 0, i32 10
  %28 = getelementptr inbounds [3 x i8], ptr %27, i64 0, i64 0
  %29 = load i8, ptr %28, align 8
  %30 = zext i8 %29 to i32
  %31 = add nsw i32 %30, %26
  %32 = trunc i32 %31 to i8
  store i8 %32, ptr %28, align 8
  %33 = getelementptr inbounds %class.CryptData, ptr %7, i32 0, i32 10
  %34 = getelementptr inbounds [3 x i8], ptr %33, i64 0, i64 0
  %35 = load i8, ptr %34, align 8
  %36 = zext i8 %35 to i32
  %37 = load ptr, ptr %5, align 8
  %38 = load i8, ptr %37, align 1
  %39 = zext i8 %38 to i32
  %40 = sub nsw i32 %39, %36
  %41 = trunc i32 %40 to i8
  store i8 %41, ptr %37, align 1
  %42 = load ptr, ptr %5, align 8
  %43 = getelementptr inbounds i8, ptr %42, i32 1
  store ptr %43, ptr %5, align 8
  br label %8, !llvm.loop !7

44:                                               ; preds = %8
  ret void
}

; Function Attrs: mustprogress uwtable
define void @_ZN9CryptData12DecryptBlockEPhm(ptr noundef nonnull align 8 dereferenceable(2516) %0, ptr noundef %1, i64 noundef %2) #1 align 2 {
  %4 = alloca ptr, align 8
  %5 = alloca ptr, align 8
  %6 = alloca i64, align 8
  %7 = alloca i64, align 8
  store ptr %0, ptr %4, align 8
  store ptr %1, ptr %5, align 8
  store i64 %2, ptr %6, align 8
  %8 = load ptr, ptr %4, align 8
  %9 = getelementptr inbounds %class.CryptData, ptr %8, i32 0, i32 5
  %10 = load i32, ptr %9, align 4
  switch i32 %10, label %35 [
    i32 1, label %11
    i32 2, label %14
    i32 3, label %17
    i32 4, label %30
    i32 5, label %30
  ]

11:                                               ; preds = %3
  %12 = load ptr, ptr %5, align 8
  %13 = load i64, ptr %6, align 8
  call void @_ZN9CryptData9Decrypt13EPhm(ptr noundef nonnull align 8 dereferenceable(2516) %8, ptr noundef %12, i64 noundef %13)
  br label %35

14:                                               ; preds = %3
  %15 = load ptr, ptr %5, align 8
  %16 = load i64, ptr %6, align 8
  call void @_ZN9CryptData7Crypt15EPhm(ptr noundef nonnull align 8 dereferenceable(2516) %8, ptr noundef %15, i64 noundef %16)
  br label %35

17:                                               ; preds = %3
  store i64 0, ptr %7, align 8
  br label %18

18:                                               ; preds = %26, %17
  %19 = load i64, ptr %7, align 8
  %20 = load i64, ptr %6, align 8
  %21 = icmp ult i64 %19, %20
  br i1 %21, label %22, label %29

22:                                               ; preds = %18
  %23 = load ptr, ptr %5, align 8
  %24 = load i64, ptr %7, align 8
  %25 = getelementptr inbounds i8, ptr %23, i64 %24
  call void @_ZN9CryptData14DecryptBlock20EPh(ptr noundef nonnull align 8 dereferenceable(2516) %8, ptr noundef %25)
  br label %26

26:                                               ; preds = %22
  %27 = load i64, ptr %7, align 8
  %28 = add i64 %27, 16
  store i64 %28, ptr %7, align 8
  br label %18, !llvm.loop !31

29:                                               ; preds = %18
  br label %35

30:                                               ; preds = %3, %3
  %31 = getelementptr inbounds %class.CryptData, ptr %8, i32 0, i32 6
  %32 = load ptr, ptr %5, align 8
  %33 = load i64, ptr %6, align 8
  %34 = load ptr, ptr %5, align 8
  call void @_ZN8Rijndael12blockDecryptEPKhmPh(ptr noundef nonnull align 4 dereferenceable(264) %31, ptr noundef %32, i64 noundef %33, ptr noundef %34)
  br label %35

35:                                               ; preds = %30, %29, %14, %11, %3
  ret void
}