; Function Attrs: mustprogress uwtable
define void @_ZN9CryptData12DecryptBlockEPhm(ptr noundef nonnull align 8 dereferenceable(2516) %0, ptr noundef %1, i64 noundef %2) local_unnamed_addr #1 align 2 {
  %4 = getelementptr inbounds nuw i8, ptr %0, i64 940
  %5 = load i32, ptr %4, align 4
  switch i32 %5, label %_ZN9CryptData9Decrypt13EPhm.exit [
    i32 1, label %6
    i32 2, label %20
    i32 3, label %.preheader
    i32 4, label %56
    i32 5, label %56
  ]

.preheader:                                       ; preds = %3
  %.not = icmp eq i64 %2, 0
  br i1 %.not, label %_ZN9CryptData9Decrypt13EPhm.exit, label %.lr.ph

6:                                                ; preds = %3
  %.not4.i = icmp eq i64 %2, 0
  br i1 %.not4.i, label %_ZN9CryptData9Decrypt13EPhm.exit, label %.lr.ph.i

.lr.ph.i:                                         ; preds = %6
  %7 = getelementptr inbounds nuw i8, ptr %0, i64 2504
  %8 = getelementptr inbounds nuw i8, ptr %0, i64 2506
  %9 = getelementptr inbounds nuw i8, ptr %0, i64 2505
  br label %10

10:                                               ; preds = %10, %.lr.ph.i
  %.06.i = phi i64 [ %2, %.lr.ph.i ], [ %11, %10 ]
  %.035.i = phi ptr [ %1, %.lr.ph.i ], [ %19, %10 ]
  %11 = add i64 %.06.i, -1
  %12 = load i8, ptr %8, align 2
  %13 = load i8, ptr %9, align 1
  %14 = add i8 %13, %12
  store i8 %14, ptr %9, align 1
  %15 = load i8, ptr %7, align 8
  %16 = add i8 %15, %14
  store i8 %16, ptr %7, align 8
  %17 = load i8, ptr %.035.i, align 1
  %18 = sub i8 %17, %16
  store i8 %18, ptr %.035.i, align 1
  %19 = getelementptr inbounds nuw i8, ptr %.035.i, i64 1
  %.not.i = icmp eq i64 %11, 0
  br i1 %.not.i, label %_ZN9CryptData9Decrypt13EPhm.exit, label %10, !llvm.loop !7

20:                                               ; preds = %3
  %.not4.i12 = icmp eq i64 %2, 0
  br i1 %.not4.i12, label %_ZN9CryptData9Decrypt13EPhm.exit, label %.lr.ph.i13

.lr.ph.i13:                                       ; preds = %20
  %21 = getelementptr inbounds nuw i8, ptr %0, i64 2508
  %22 = getelementptr inbounds nuw i8, ptr %0, i64 1208
  %23 = getelementptr inbounds nuw i8, ptr %0, i64 2510
  %24 = getelementptr inbounds nuw i8, ptr %0, i64 2512
  %25 = getelementptr inbounds nuw i8, ptr %0, i64 2514
  br label %26

26:                                               ; preds = %26, %.lr.ph.i13
  %.06.i14 = phi i64 [ %2, %.lr.ph.i13 ], [ %27, %26 ]
  %.035.i15 = phi ptr [ %1, %.lr.ph.i13 ], [ %52, %26 ]
  %27 = add i64 %.06.i14, -1
  %28 = load i16, ptr %21, align 4
  %29 = add i16 %28, 4660
  %30 = lshr i16 %29, 1
  %31 = and i16 %30, 255
  %32 = zext nneg i16 %31 to i64
  %33 = getelementptr inbounds nuw [256 x i32], ptr %22, i64 0, i64 %32
  %34 = load i32, ptr %33, align 4
  %35 = load i16, ptr %23, align 2
  %36 = trunc i32 %34 to i16
  %37 = xor i16 %35, %36
  store i16 %37, ptr %23, align 2
  %38 = lshr i32 %34, 16
  %39 = load i16, ptr %24, align 8
  %40 = trunc nuw i32 %38 to i16
  %41 = sub i16 %39, %40
  store i16 %41, ptr %24, align 8
  %42 = xor i16 %41, %29
  %43 = load i16, ptr %25, align 2
  %44 = tail call i16 @llvm.fshl.i16(i16 %43, i16 %43, i16 15)
  %45 = xor i16 %44, %37
  %46 = tail call i16 @llvm.fshl.i16(i16 %45, i16 %45, i16 15)
  store i16 %46, ptr %25, align 2
  %47 = xor i16 %42, %46
  store i16 %47, ptr %21, align 4
  %48 = lshr i16 %47, 8
  %49 = load i8, ptr %.035.i15, align 1
  %50 = trunc nuw i16 %48 to i8
  %51 = xor i8 %49, %50
  store i8 %51, ptr %.035.i15, align 1
  %52 = getelementptr inbounds nuw i8, ptr %.035.i15, i64 1
  %.not.i16 = icmp eq i64 %27, 0
  br i1 %.not.i16, label %_ZN9CryptData9Decrypt13EPhm.exit, label %26, !llvm.loop !8

.lr.ph:                                           ; preds = %.preheader, %.lr.ph
  %.019 = phi i64 [ %54, %.lr.ph ], [ 0, %.preheader ]
  %53 = getelementptr inbounds i8, ptr %1, i64 %.019
  tail call void @_ZN9CryptData14DecryptBlock20EPh(ptr noundef nonnull align 8 dereferenceable(2516) %0, ptr noundef %53)
  %54 = add i64 %.019, 16
  %55 = icmp ult i64 %54, %2
  br i1 %55, label %.lr.ph, label %_ZN9CryptData9Decrypt13EPhm.exit, !llvm.loop !28

56:                                               ; preds = %3, %3
  %57 = getelementptr inbounds nuw i8, ptr %0, i64 944
  tail call void @_ZN8Rijndael12blockDecryptEPKhmPh(ptr noundef nonnull align 4 dereferenceable(264) %57, ptr noundef %1, i64 noundef %2, ptr noundef %1)
  br label %_ZN9CryptData9Decrypt13EPhm.exit

_ZN9CryptData9Decrypt13EPhm.exit:                 ; preds = %.lr.ph, %26, %10, %.preheader, %20, %6, %56, %3
  ret void
}